; Function Attrs: nounwind uwtable
define void @Rnm_ManCollect(ptr noundef readonly captures(none) %0) local_unnamed_addr #0 {
  %2 = load ptr, ptr %0, align 8, !tbaa !3
  tail call void @Gia_ManIncrementTravId(ptr noundef %2) #22
  %3 = load ptr, ptr %0, align 8, !tbaa !3
  %4 = getelementptr i8, ptr %3, i64 32
  %.val41 = load ptr, ptr %4, align 8, !tbaa !59
  %.val41.fr = freeze ptr %.val41
  %5 = getelementptr inbounds nuw i8, ptr %3, i64 176
  %6 = load i32, ptr %5, align 8, !tbaa !60
  %7 = getelementptr inbounds nuw i8, ptr %3, i64 616
  %8 = load ptr, ptr %7, align 8, !tbaa !58
  store i32 %6, ptr %8, align 4, !tbaa !52
  %9 = getelementptr inbounds nuw i8, ptr %.val41.fr, i64 8
  store i32 0, ptr %9, align 4, !tbaa !61
  %10 = getelementptr inbounds nuw i8, ptr %0, i64 16
  %11 = load ptr, ptr %10, align 8, !tbaa !63
  %12 = getelementptr i8, ptr %11, i64 4
  %.not = icmp eq ptr %.val41.fr, null
  %.val3958 = load i32, ptr %12, align 4, !tbaa !15
  %13 = icmp slt i32 %.val3958, 1
  %or.cond59 = or i1 %.not, %13
  br i1 %or.cond59, label %.critedge, label %.lr.ph.split.preheader

.lr.ph.split.preheader:                           ; preds = %1
  %14 = getelementptr i8, ptr %11, i64 8
  %.val43 = load ptr, ptr %14, align 8, !tbaa !19
  br label %.lr.ph.split

.lr.ph.split:                                     ; preds = %.lr.ph.split.preheader, %.lr.ph.split
  %indvars.iv = phi i64 [ 0, %.lr.ph.split.preheader ], [ %indvars.iv.next, %.lr.ph.split ]
  %15 = getelementptr inbounds nuw i32, ptr %.val43, i64 %indvars.iv
  %16 = load i32, ptr %15, align 4, !tbaa !52
  %17 = sext i32 %16 to i64
  %18 = shl nsw i64 %17, 2
  %19 = getelementptr inbounds i8, ptr %8, i64 %18
  store i32 %6, ptr %19, align 4, !tbaa !52
  %indvars.iv.next = add nuw nsw i64 %indvars.iv, 1
  %20 = getelementptr inbounds %struct.Gia_Obj_t_, ptr %.val41.fr, i64 %17, i32 1
  %21 = trunc nuw nsw i64 %indvars.iv.next to i32
  store i32 %21, ptr %20, align 4, !tbaa !61
  %.val39 = load i32, ptr %12, align 4, !tbaa !15
  %22 = sext i32 %.val39 to i64
  %.not65 = icmp slt i64 %indvars.iv.next, %22
  br i1 %.not65, label %.lr.ph.split, label %.critedge, !llvm.loop !64

.critedge:                                        ; preds = %.lr.ph.split, %1
  %23 = getelementptr inbounds nuw i8, ptr %0, i64 40
  %24 = load ptr, ptr %23, align 8, !tbaa !20
  %25 = getelementptr inbounds nuw i8, ptr %24, i64 4
  store i32 0, ptr %25, align 4, !tbaa !15
  %26 = getelementptr i8, ptr %3, i64 72
  %.val48 = load ptr, ptr %26, align 8, !tbaa !66
  %27 = getelementptr i8, ptr %.val48, i64 8
  %.val48.val = load ptr, ptr %27, align 8, !tbaa !19
  %.val48.val.val = load i32, ptr %.val48.val, align 4, !tbaa !52
  %28 = sext i32 %.val48.val.val to i64
  %29 = getelementptr inbounds %struct.Gia_Obj_t_, ptr %.val41.fr, i64 %28
  %.val38 = load i32, ptr %12, align 4, !tbaa !15
  %30 = add nsw i32 %.val38, 1
  tail call void @Rnm_ManCollect_rec(ptr noundef %3, ptr noundef %29, ptr noundef %24, i32 noundef %30)
  %31 = load ptr, ptr %23, align 8, !tbaa !20
  %32 = getelementptr i8, ptr %31, i64 4
  %.val3761 = load i32, ptr %32, align 4, !tbaa !15
  %33 = icmp sgt i32 %.val3761, 0
  br i1 %33, label %.lr.ph63, label %.critedge2

.lr.ph63:                                         ; preds = %.critedge, %Gia_ObjIsRo.exit.thread
  %34 = phi ptr [ %65, %Gia_ObjIsRo.exit.thread ], [ %31, %.critedge ]
  %indvars.iv67 = phi i64 [ %indvars.iv.next68, %Gia_ObjIsRo.exit.thread ], [ 0, %.critedge ]
  %35 = load ptr, ptr %0, align 8, !tbaa !3
  %36 = getelementptr i8, ptr %35, i64 32
  %.val46 = load ptr, ptr %36, align 8, !tbaa !59
  %.not35 = icmp eq ptr %.val46, null
  br i1 %.not35, label %.critedge2, label %37

37:                                               ; preds = %.lr.ph63
  %38 = getelementptr i8, ptr %34, i64 8
  %.val44 = load ptr, ptr %38, align 8, !tbaa !19
  %39 = getelementptr inbounds nuw i32, ptr %.val44, i64 %indvars.iv67
  %40 = load i32, ptr %39, align 4, !tbaa !52
  %41 = sext i32 %40 to i64
  %42 = getelementptr inbounds %struct.Gia_Obj_t_, ptr %.val46, i64 %41
  %.val40 = load i64, ptr %42, align 4
  %43 = and i64 %.val40, 2684354559
  %narrow.i.not.i = icmp eq i64 %43, 2684354559
  br i1 %narrow.i.not.i, label %Gia_ObjIsRo.exit, label %Gia_ObjIsRo.exit.thread

Gia_ObjIsRo.exit:                                 ; preds = %37
  %44 = lshr i64 %.val40, 32
  %45 = trunc nuw i64 %44 to i32
  %46 = and i32 %45, 536870911
  %47 = getelementptr i8, ptr %35, i64 16
  %.val4.i = load i32, ptr %47, align 8, !tbaa !67
  %48 = getelementptr i8, ptr %35, i64 64
  %.val5.i = load ptr, ptr %48, align 8, !tbaa !68
  %49 = getelementptr i8, ptr %.val5.i, i64 4
  %.val5.val.i = load i32, ptr %49, align 4, !tbaa !15
  %50 = sub nsw i32 %.val5.val.i, %.val4.i
  %.not55 = icmp slt i32 %46, %50
  br i1 %.not55, label %Gia_ObjIsRo.exit.thread, label %51

51:                                               ; preds = %Gia_ObjIsRo.exit
  %52 = getelementptr i8, ptr %35, i64 72
  %.val6.i = load ptr, ptr %52, align 8, !tbaa !66
  %53 = getelementptr i8, ptr %.val6.i, i64 4
  %.val6.val.i = load i32, ptr %53, align 4, !tbaa !15
  %54 = add i32 %.val6.val.i, %46
  %55 = sub i32 %54, %.val5.val.i
  %56 = getelementptr i8, ptr %.val6.i, i64 8
  %.val5.val.i53 = load ptr, ptr %56, align 8, !tbaa !19
  %57 = sext i32 %55 to i64
  %58 = getelementptr inbounds i32, ptr %.val5.val.i53, i64 %57
  %59 = load i32, ptr %58, align 4, !tbaa !52
  %60 = sext i32 %59 to i64
  %61 = getelementptr inbounds %struct.Gia_Obj_t_, ptr %.val46, i64 %60
  %62 = load ptr, ptr %10, align 8, !tbaa !63
  %63 = getelementptr i8, ptr %62, i64 4
  %.val = load i32, ptr %63, align 4, !tbaa !15
  %64 = add nsw i32 %.val, 1
  tail call void @Rnm_ManCollect_rec(ptr noundef nonnull %35, ptr noundef nonnull %61, ptr noundef nonnull %34, i32 noundef %64)
  %.pre = load ptr, ptr %23, align 8, !tbaa !20
  br label %Gia_ObjIsRo.exit.thread

Gia_ObjIsRo.exit.thread:                          ; preds = %37, %Gia_ObjIsRo.exit, %51
  %65 = phi ptr [ %34, %37 ], [ %34, %Gia_ObjIsRo.exit ], [ %.pre, %51 ]
  %indvars.iv.next68 = add nuw nsw i64 %indvars.iv67, 1
  %66 = getelementptr i8, ptr %65, i64 4
  %.val37 = load i32, ptr %66, align 4, !tbaa !15
  %67 = sext i32 %.val37 to i64
  %68 = icmp slt i64 %indvars.iv.next68, %67
  br i1 %68, label %.lr.ph63, label %.critedge2, !llvm.loop !69

.critedge2:                                       ; preds = %.lr.ph63, %Gia_ObjIsRo.exit.thread, %.critedge
  ret void
}